
objd_tutorial.o:     file format elf64-x86-64


Disassembly of section .text:

0000000000000000 <helper_function>:
   0:	55                   	push   rbp
   1:	48 89 e5             	mov    rbp,rsp
   4:	f3 0f 11 45 fc       	movss  DWORD PTR [rbp-0x4],xmm0
   9:	f3 0f 11 4d f8       	movss  DWORD PTR [rbp-0x8],xmm1
   e:	f3 0f 10 45 fc       	movss  xmm0,DWORD PTR [rbp-0x4]
  13:	f3 0f 58 45 f8       	addss  xmm0,DWORD PTR [rbp-0x8]
  18:	f3 0f 2c c0          	cvttss2si eax,xmm0
  1c:	5d                   	pop    rbp
  1d:	c3                   	ret    

000000000000001e <main>:
  1e:	55                   	push   rbp
  1f:	48 89 e5             	mov    rbp,rsp
  22:	8b 15 00 00 00 00    	mov    edx,DWORD PTR [rip+0x0]        # 28 <main+0xa>
  28:	8b 05 00 00 00 00    	mov    eax,DWORD PTR [rip+0x0]        # 2e <main+0x10>
  2e:	39 c2                	cmp    edx,eax
  30:	7e 1e                	jle    50 <main+0x32>
  32:	f3 0f 10 0d 00 00 00 	movss  xmm1,DWORD PTR [rip+0x0]        # 3a <main+0x1c>
  39:	00 
  3a:	f3 0f 10 05 00 00 00 	movss  xmm0,DWORD PTR [rip+0x0]        # 42 <main+0x24>
  41:	00 
  42:	f3 0f 58 c1          	addss  xmm0,xmm1
  46:	f3 0f 11 05 00 00 00 	movss  DWORD PTR [rip+0x0],xmm0        # 4e <main+0x30>
  4d:	00 
  4e:	eb 1c                	jmp    6c <main+0x4e>
  50:	f3 0f 10 05 00 00 00 	movss  xmm0,DWORD PTR [rip+0x0]        # 58 <main+0x3a>
  57:	00 
  58:	f3 0f 10 0d 00 00 00 	movss  xmm1,DWORD PTR [rip+0x0]        # 60 <main+0x42>
  5f:	00 
  60:	f3 0f 5c c1          	subss  xmm0,xmm1
  64:	f3 0f 11 05 00 00 00 	movss  DWORD PTR [rip+0x0],xmm0        # 6c <main+0x4e>
  6b:	00 
  6c:	ba 02 00 00 00       	mov    edx,0x2
  71:	8b 05 00 00 00 00    	mov    eax,DWORD PTR [rip+0x0]        # 77 <main+0x59>
  77:	89 d6                	mov    esi,edx
  79:	89 c7                	mov    edi,eax
  7b:	e8 00 00 00 00       	call   80 <main+0x62>
  80:	89 05 00 00 00 00    	mov    DWORD PTR [rip+0x0],eax        # 86 <main+0x68>
  86:	b8 00 00 00 00       	mov    eax,0x0
  8b:	5d                   	pop    rbp
  8c:	c3                   	ret    

000000000000008d <f>:
  8d:	55                   	push   rbp
  8e:	48 89 e5             	mov    rbp,rsp
  91:	89 7d ec             	mov    DWORD PTR [rbp-0x14],edi
  94:	89 75 e8             	mov    DWORD PTR [rbp-0x18],esi
  97:	8b 45 ec             	mov    eax,DWORD PTR [rbp-0x14]
  9a:	0f af 45 e8          	imul   eax,DWORD PTR [rbp-0x18]
  9e:	89 45 fc             	mov    DWORD PTR [rbp-0x4],eax
  a1:	8b 45 fc             	mov    eax,DWORD PTR [rbp-0x4]
  a4:	5d                   	pop    rbp
  a5:	c3                   	ret    
